target datalayout = "e-m:e-p270:32:32-p271:32:32-p272:64:64-i64:64-i128:128-f80:128-n8:16:32:64-S128"
target triple = "x86_64-pc-linux-gnu"

; Function Attrs: nounwind uwtable
define internal i32 @dummy_rand_generate(ptr noundef %0, ptr noundef %1, i64 noundef %2, i32 noundef %3, i32 noundef %4, ptr noundef %5, i64 noundef %6) #0 {
  %8 = alloca ptr, align 8
  %9 = alloca ptr, align 8
  %10 = alloca i64, align 8
  %11 = alloca i32, align 4
  %12 = alloca i32, align 4
  %13 = alloca ptr, align 8
  %14 = alloca i64, align 8
  %15 = alloca i64, align 8
  store ptr %0, ptr %8, align 8, !tbaa !25
  store ptr %1, ptr %9, align 8, !tbaa !32
  store i64 %2, ptr %10, align 8, !tbaa !34
  store i32 %3, ptr %11, align 4, !tbaa !4
  store i32 %4, ptr %12, align 4, !tbaa !4
  store ptr %5, ptr %13, align 8, !tbaa !32
  store i64 %6, ptr %14, align 8, !tbaa !34
  call void @llvm.lifetime.start.p0(i64 8, ptr %15) #3
  store i64 0, ptr %15, align 8, !tbaa !34
  br label %16

16:                                               ; preds = %27, %7
  %17 = load i64, ptr %15, align 8, !tbaa !34
  %18 = load i64, ptr %10, align 8, !tbaa !34
  %19 = icmp ult i64 %17, %18
  br i1 %19, label %20, label %30

20:                                               ; preds = %16
  %21 = load i64, ptr %15, align 8, !tbaa !34
  %22 = and i64 %21, 255
  %23 = trunc i64 %22 to i8
  %24 = load ptr, ptr %9, align 8, !tbaa !32
  %25 = load i64, ptr %15, align 8, !tbaa !34
  %26 = getelementptr inbounds nuw i8, ptr %24, i64 %25
  store i8 %23, ptr %26, align 1, !tbaa !36
  br label %27

27:                                               ; preds = %20
  %28 = load i64, ptr %15, align 8, !tbaa !34
  %29 = add i64 %28, 1
  store i64 %29, ptr %15, align 8, !tbaa !34
  br label %16, !llvm.loop !37

30:                                               ; preds = %16
  call void @llvm.lifetime.end.p0(i64 8, ptr %15) #3
  ret i32 1
}