; Function Attrs: nofree norecurse nosync nounwind memory(argmem: write) uwtable
define internal noundef i32 @dummy_rand_generate(ptr readnone captures(none) %0, ptr noundef writeonly captures(none) %1, i64 noundef %2, i32 %3, i32 %4, ptr readnone captures(none) %5, i64 %6) #5 {
  %.not = icmp eq i64 %2, 0
  br i1 %.not, label %._crit_edge, label %.lr.ph

.lr.ph:                                           ; preds = %7, %.lr.ph
  %.05 = phi i64 [ %10, %.lr.ph ], [ 0, %7 ]
  %8 = trunc i64 %.05 to i8
  %9 = getelementptr inbounds nuw i8, ptr %1, i64 %.05
  store i8 %8, ptr %9, align 1, !tbaa !12
  %10 = add nuw i64 %.05, 1
  %exitcond.not = icmp eq i64 %10, %2
  br i1 %exitcond.not, label %._crit_edge, label %.lr.ph, !llvm.loop !13

._crit_edge:                                      ; preds = %.lr.ph, %7
  ret i32 1
}